; Function Attrs: mustprogress uwtable
define hidden void @_ZN8reslimit9pop_childEPS_(ptr noundef nonnull align 8 captures(none) dereferenceable(40) %0, ptr noundef captures(address) %1) local_unnamed_addr #3 align 2 personality ptr @__gxx_personality_v0 {
  %3 = load ptr, ptr @_ZL12g_rlimit_mux, align 8, !tbaa !3
  %4 = tail call noundef i32 @pthread_mutex_lock(ptr noundef nonnull align 8 dereferenceable(40) %3) #23
  %.not.i.i = icmp eq i32 %4, 0
  br i1 %.not.i.i, label %_ZNSt10lock_guardISt5mutexEC2ERS0_.exit.preheader, label %10

_ZNSt10lock_guardISt5mutexEC2ERS0_.exit.preheader: ; preds = %2
  %5 = getelementptr inbounds nuw i8, ptr %0, i64 32
  %6 = load ptr, ptr %5, align 8, !tbaa !30
  %7 = icmp eq ptr %6, null
  br i1 %7, label %.loopexit, label %_ZNSt10lock_guardISt5mutexEC2ERS0_.exit.preheader.split

_ZNSt10lock_guardISt5mutexEC2ERS0_.exit.preheader.split: ; preds = %_ZNSt10lock_guardISt5mutexEC2ERS0_.exit.preheader
  %8 = getelementptr inbounds i8, ptr %6, i64 -4
  %9 = load i32, ptr %8, align 4, !tbaa !28
  %wide.trip.count = zext i32 %9 to i64
  br label %_ZNSt10lock_guardISt5mutexEC2ERS0_.exit

10:                                               ; preds = %2
  tail call void @_ZSt20__throw_system_errori(i32 noundef %4) #24
  unreachable

_ZNSt10lock_guardISt5mutexEC2ERS0_.exit:          ; preds = %11, %_ZNSt10lock_guardISt5mutexEC2ERS0_.exit.preheader.split
  %indvars.iv = phi i64 [ %indvars.iv.next, %11 ], [ 0, %_ZNSt10lock_guardISt5mutexEC2ERS0_.exit.preheader.split ]
  %exitcond.not = icmp eq i64 %indvars.iv, %wide.trip.count
  br i1 %exitcond.not, label %.loopexit, label %11

11:                                               ; preds = %_ZNSt10lock_guardISt5mutexEC2ERS0_.exit
  %12 = getelementptr inbounds nuw ptr, ptr %6, i64 %indvars.iv
  %13 = load ptr, ptr %12, align 8, !tbaa !31
  %14 = icmp eq ptr %13, %1
  %indvars.iv.next = add nuw nsw i64 %indvars.iv, 1
  br i1 %14, label %_ZN6vectorIP8reslimitLb0EjE3endEv.exit.i, label %_ZNSt10lock_guardISt5mutexEC2ERS0_.exit, !llvm.loop !33

_ZN6vectorIP8reslimitLb0EjE3endEv.exit.i:         ; preds = %11
  %15 = getelementptr inbounds nuw ptr, ptr %6, i64 %indvars.iv
  %16 = getelementptr inbounds nuw i8, ptr %1, i64 8
  %17 = load i64, ptr %16, align 8, !tbaa !23
  %18 = getelementptr inbounds nuw i8, ptr %0, i64 8
  %19 = load i64, ptr %18, align 8, !tbaa !23
  %20 = add i64 %19, %17
  store i64 %20, ptr %18, align 8, !tbaa !23
  store i64 0, ptr %16, align 8, !tbaa !23
  %21 = getelementptr inbounds nuw ptr, ptr %6, i64 %wide.trip.count
  %.010.i = getelementptr inbounds nuw i8, ptr %15, i64 8
  %.not11.i = icmp eq ptr %.010.i, %21
  br i1 %.not11.i, label %_ZN6vectorIP8reslimitLb0EjE5eraseEPS1_.exit, label %.lr.ph.preheader.i

.lr.ph.preheader.i:                               ; preds = %_ZN6vectorIP8reslimitLb0EjE3endEv.exit.i
  %22 = ptrtoint ptr %6 to i64
  %23 = ptrtoint ptr %15 to i64
  %24 = shl nuw nsw i64 %wide.trip.count, 3
  %25 = add i64 %22, -16
  %26 = sub i64 %25, %23
  %27 = add i64 %26, %24
  %28 = and i64 %27, -8
  %29 = add i64 %28, 8
  tail call void @llvm.memmove.p0.p0.i64(ptr nonnull align 8 %15, ptr nonnull align 8 %.010.i, i64 %29, i1 false), !tbaa !31
  br label %_ZN6vectorIP8reslimitLb0EjE5eraseEPS1_.exit

_ZN6vectorIP8reslimitLb0EjE5eraseEPS1_.exit:      ; preds = %_ZN6vectorIP8reslimitLb0EjE3endEv.exit.i, %.lr.ph.preheader.i
  %30 = add i32 %9, -1
  store i32 %30, ptr %8, align 4, !tbaa !28
  br label %.loopexit

.loopexit:                                        ; preds = %_ZNSt10lock_guardISt5mutexEC2ERS0_.exit, %_ZNSt10lock_guardISt5mutexEC2ERS0_.exit.preheader, %_ZN6vectorIP8reslimitLb0EjE5eraseEPS1_.exit
  %31 = tail call noundef i32 @pthread_mutex_unlock(ptr noundef nonnull align 8 dereferenceable(40) %3) #23
  ret void
}